target datalayout = "e-m:e-p270:32:32-p271:32:32-p272:64:64-i64:64-i128:128-f80:128-n8:16:32:64-S128"
target triple = "x86_64-pc-linux-gnu"

%struct.pg_regex_t = type { i32, i64, i64, i32, ptr, i32, ptr, ptr }
%struct.guts = type { i32, i32, i64, i64, ptr, %struct.cnfa, i32, %struct.colormap, ptr, ptr, i32 }
%struct.cnfa = type { i32, i32, i32, i32, i32, [2 x i16], [2 x i16], ptr, ptr, ptr, i32, i32 }
%struct.colormap = type { i32, ptr, i64, i64, i16, ptr, ptr, [14 x i32], i32, ptr, ptr, i32, i32, i32, [10 x %struct.colordesc] }
%struct.colordesc = type { i32, i32, i16, ptr, i32, i32 }

; Function Attrs: nounwind uwtable
define dso_local void @pg_reg_getoutarcs(ptr noundef %0, i32 noundef %1, ptr noundef %2, i32 noundef %3) #0 {
  %5 = alloca ptr, align 8
  %6 = alloca i32, align 4
  %7 = alloca ptr, align 8
  %8 = alloca i32, align 4
  %9 = alloca ptr, align 8
  %10 = alloca i32, align 4
  %11 = alloca i32, align 4
  store ptr %0, ptr %5, align 8
  store i32 %1, ptr %6, align 4
  store ptr %2, ptr %7, align 8
  store i32 %3, ptr %8, align 4
  call void @llvm.lifetime.start.p0(i64 8, ptr %9) #3
  call void @llvm.lifetime.start.p0(i64 4, ptr %10) #3
  %12 = load ptr, ptr %5, align 8
  %13 = getelementptr inbounds nuw %struct.pg_regex_t, ptr %12, i32 0, i32 6
  %14 = load ptr, ptr %13, align 8
  %15 = getelementptr inbounds nuw %struct.guts, ptr %14, i32 0, i32 5
  store ptr %15, ptr %9, align 8
  %16 = load i32, ptr %6, align 4
  %17 = icmp slt i32 %16, 0
  br i1 %17, label %27, label %18

18:                                               ; preds = %4
  %19 = load i32, ptr %6, align 4
  %20 = load ptr, ptr %9, align 8
  %21 = getelementptr inbounds nuw %struct.cnfa, ptr %20, i32 0, i32 0
  %22 = load i32, ptr %21, align 8
  %23 = icmp sge i32 %19, %22
  br i1 %23, label %27, label %24

24:                                               ; preds = %18
  %25 = load i32, ptr %8, align 4
  %26 = icmp sle i32 %25, 0
  br i1 %26, label %27, label %28

27:                                               ; preds = %24, %18, %4
  store i32 1, ptr %11, align 4
  br label %33

28:                                               ; preds = %24
  store i32 0, ptr %10, align 4
  %29 = load ptr, ptr %9, align 8
  %30 = load i32, ptr %6, align 4
  %31 = load ptr, ptr %7, align 8
  %32 = load i32, ptr %8, align 4
  call void @traverse_lacons(ptr noundef %29, i32 noundef %30, ptr noundef %10, ptr noundef %31, i32 noundef %32)
  store i32 0, ptr %11, align 4
  br label %33

33:                                               ; preds = %28, %27
  call void @llvm.lifetime.end.p0(i64 4, ptr %10) #3
  call void @llvm.lifetime.end.p0(i64 8, ptr %9) #3
  %34 = load i32, ptr %11, align 4
  switch i32 %34, label %36 [
    i32 0, label %35
    i32 1, label %35
  ]

35:                                               ; preds = %33, %33
  ret void

36:                                               ; preds = %33
  unreachable
}