; Function Attrs: nounwind uwtable
define dso_local void @pg_reg_getoutarcs(ptr noundef readonly captures(none) %0, i32 noundef %1, ptr noundef writeonly captures(none) %2, i32 noundef %3) local_unnamed_addr #2 {
  %5 = alloca i32, align 4
  call void @llvm.lifetime.start.p0(i64 4, ptr nonnull %5) #5
  %6 = getelementptr inbounds nuw i8, ptr %0, i64 48
  %7 = load ptr, ptr %6, align 8
  %8 = getelementptr inbounds nuw i8, ptr %7, i64 32
  %9 = icmp slt i32 %1, 0
  br i1 %9, label %15, label %10

10:                                               ; preds = %4
  %11 = load i32, ptr %8, align 8
  %12 = icmp sge i32 %1, %11
  %13 = icmp slt i32 %3, 1
  %or.cond = or i1 %13, %12
  br i1 %or.cond, label %15, label %14

14:                                               ; preds = %10
  store i32 0, ptr %5, align 4
  call fastcc void @traverse_lacons(ptr noundef nonnull %8, i32 noundef %1, ptr noundef %5, ptr noundef %2, i32 noundef %3)
  br label %15

15:                                               ; preds = %4, %10, %14
  call void @llvm.lifetime.end.p0(i64 4, ptr nonnull %5) #5
  ret void
}